target datalayout = "e-m:e-p270:32:32-p271:32:32-p272:64:64-i64:64-i128:128-f80:128-n8:16:32:64-S128"
target triple = "x86_64-pc-linux-gnu"

%struct.stat = type { i64, i64, i64, i32, i32, i32, i32, i64, i64, i64, i64, %struct.timespec, %struct.timespec, %struct.timespec, [3 x i64] }
%struct.timespec = type { i64, i64 }

@the_repository = external global ptr, align 8
@cruft = internal global i32 0, align 4
@.str.139 = private unnamed_addr constant [1 x i8] zeroinitializer, align 1
@git_gettext_enabled = external global i32, align 4
@.str.184 = private unnamed_addr constant [41 x i8] c"loose object at %s could not be examined\00", align 1
@.str.185 = private unnamed_addr constant [18 x i8] c"unable to stat %s\00", align 1

; Function Attrs: inlinehint nounwind uwtable
define internal i32 @const_error() #2 {
  ret i32 -1
}

; Function Attrs: inlinehint nounwind uwtable
define internal ptr @_(ptr noundef %0) #2 {
  %2 = alloca ptr, align 8
  %3 = alloca ptr, align 8
  store ptr %0, ptr %3, align 8, !tbaa !24
  %4 = load ptr, ptr %3, align 8, !tbaa !24
  %5 = load i8, ptr %4, align 1, !tbaa !26
  %6 = icmp ne i8 %5, 0
  br i1 %6, label %8, label %7

7:                                                ; preds = %1
  store ptr @.str.139, ptr %2, align 8
  br label %16

8:                                                ; preds = %1
  %9 = load i32, ptr @git_gettext_enabled, align 4, !tbaa !27
  %10 = icmp ne i32 %9, 0
  br i1 %10, label %13, label %11

11:                                               ; preds = %8
  %12 = load ptr, ptr %3, align 8, !tbaa !24
  store ptr %12, ptr %2, align 8
  br label %16

13:                                               ; preds = %8
  %14 = load ptr, ptr %3, align 8, !tbaa !24
  %15 = call ptr @dcgettext(ptr noundef null, ptr noundef %14, i32 noundef 5) #11
  store ptr %15, ptr %2, align 8
  br label %16

16:                                               ; preds = %13, %11, %7
  %17 = load ptr, ptr %2, align 8
  ret ptr %17
}

; Function Attrs: nounwind uwtable
define internal i32 @add_loose_object(ptr noundef %0, ptr noundef %1, ptr noundef %2) #0 {
  %4 = alloca i32, align 4
  %5 = alloca ptr, align 8
  %6 = alloca ptr, align 8
  %7 = alloca ptr, align 8
  %8 = alloca i32, align 4
  %9 = alloca i32, align 4
  %10 = alloca %struct.stat, align 8
  store ptr %0, ptr %5, align 8, !tbaa !190
  store ptr %1, ptr %6, align 8, !tbaa !24
  store ptr %2, ptr %7, align 8, !tbaa !134
  call void @llvm.lifetime.start.p0(i64 4, ptr %8) #11
  %11 = load ptr, ptr @the_repository, align 8, !tbaa !11
  %12 = load ptr, ptr %5, align 8, !tbaa !190
  %13 = call i32 @oid_object_info(ptr noundef %11, ptr noundef %12, ptr noundef null)
  store i32 %13, ptr %8, align 4, !tbaa !27
  %14 = load i32, ptr %8, align 4, !tbaa !27
  %15 = icmp slt i32 %14, 0
  br i1 %15, label %16, label %19

16:                                               ; preds = %3
  %17 = call ptr @_(ptr noundef @.str.184)
  %18 = load ptr, ptr %6, align 8, !tbaa !24
  call void (ptr, ...) @warning(ptr noundef %17, ptr noundef %18)
  store i32 0, ptr %4, align 4
  store i32 1, ptr %9, align 4
  br label %51

19:                                               ; preds = %3
  %20 = load i32, ptr @cruft, align 4, !tbaa !27
  %21 = icmp ne i32 %20, 0
  br i1 %21, label %22, label %46

22:                                               ; preds = %19
  call void @llvm.lifetime.start.p0(i64 144, ptr %10) #11
  %23 = load ptr, ptr %6, align 8, !tbaa !24
  %24 = call i32 @stat64(ptr noundef %23, ptr noundef %10) #11
  %25 = icmp slt i32 %24, 0
  br i1 %25, label %26, label %36

26:                                               ; preds = %22
  %27 = call ptr @__errno_location() #14
  %28 = load i32, ptr %27, align 4, !tbaa !27
  %29 = icmp eq i32 %28, 2
  br i1 %29, label %30, label %31

30:                                               ; preds = %26
  store i32 0, ptr %4, align 4
  store i32 1, ptr %9, align 4
  br label %43

31:                                               ; preds = %26
  %32 = load ptr, ptr %5, align 8, !tbaa !190
  %33 = call ptr @oid_to_hex(ptr noundef %32)
  %34 = call i32 (ptr, ...) @error_errno(ptr noundef @.str.185, ptr noundef %33)
  %35 = call i32 @const_error()
  store i32 %35, ptr %4, align 4
  store i32 1, ptr %9, align 4
  br label %43

36:                                               ; preds = %22
  %37 = load ptr, ptr %5, align 8, !tbaa !190
  %38 = load i32, ptr %8, align 4, !tbaa !27
  %39 = getelementptr inbounds nuw %struct.stat, ptr %10, i32 0, i32 12
  %40 = getelementptr inbounds nuw %struct.timespec, ptr %39, i32 0, i32 0
  %41 = load i64, ptr %40, align 8, !tbaa !207
  %42 = trunc i64 %41 to i32
  call void @add_cruft_object_entry(ptr noundef %37, i32 noundef %38, ptr noundef null, i64 noundef 0, ptr noundef null, i32 noundef %42)
  store i32 0, ptr %9, align 4
  br label %43

43:                                               ; preds = %36, %31, %30
  call void @llvm.lifetime.end.p0(i64 144, ptr %10) #11
  %44 = load i32, ptr %9, align 4
  switch i32 %44, label %51 [
    i32 0, label %45
  ]

45:                                               ; preds = %43
  br label %50

46:                                               ; preds = %19
  %47 = load ptr, ptr %5, align 8, !tbaa !190
  %48 = load i32, ptr %8, align 4, !tbaa !27
  %49 = call i32 @add_object_entry(ptr noundef %47, i32 noundef %48, ptr noundef @.str.139, i32 noundef 0)
  br label %50

50:                                               ; preds = %46, %45
  store i32 0, ptr %4, align 4
  store i32 1, ptr %9, align 4
  br label %51

51:                                               ; preds = %50, %43, %16
  call void @llvm.lifetime.end.p0(i64 4, ptr %8) #11
  %52 = load i32, ptr %4, align 4
  ret i32 %52
}