; Function Attrs: nounwind uwtable
define internal range(i32 -1, 1) i32 @add_loose_object(ptr noundef %0, ptr noundef %1, ptr readnone captures(none) %2) #0 {
  %4 = alloca %struct.stat, align 8
  %5 = load ptr, ptr @the_repository, align 8, !tbaa !4
  %6 = tail call i32 @oid_object_info(ptr noundef %5, ptr noundef %0, ptr noundef null) #25
  %7 = icmp slt i32 %6, 0
  br i1 %7, label %8, label %12

8:                                                ; preds = %3
  %9 = load i32, ptr @git_gettext_enabled, align 4, !tbaa !30
  %.not4.i = icmp eq i32 %9, 0
  br i1 %.not4.i, label %_.exit, label %10

10:                                               ; preds = %8
  %11 = tail call ptr @dcgettext(ptr noundef null, ptr noundef nonnull @.str.184, i32 noundef 5) #25
  br label %_.exit

_.exit:                                           ; preds = %8, %10
  %.0.i = phi ptr [ %11, %10 ], [ @.str.184, %8 ]
  tail call void (ptr, ...) @warning(ptr noundef %.0.i, ptr noundef %1) #25
  br label %29

12:                                               ; preds = %3
  %13 = load i32, ptr @cruft, align 4, !tbaa !30
  %.not = icmp eq i32 %13, 0
  br i1 %.not, label %28, label %14

14:                                               ; preds = %12
  call void @llvm.lifetime.start.p0(i64 144, ptr nonnull %4) #25
  %15 = call i32 @stat64(ptr noundef %1, ptr noundef nonnull %4) #25
  %16 = icmp sgt i32 %15, -1
  br i1 %16, label %24, label %17

17:                                               ; preds = %14
  %18 = tail call ptr @__errno_location() #27
  %19 = load i32, ptr %18, align 4, !tbaa !30
  %20 = icmp eq i32 %19, 2
  br i1 %20, label %.thread, label %21

21:                                               ; preds = %17
  %22 = tail call ptr @oid_to_hex(ptr noundef %0) #25
  %23 = tail call i32 (ptr, ...) @error_errno(ptr noundef nonnull @.str.185, ptr noundef %22) #25
  br label %.thread

.thread:                                          ; preds = %17, %21
  %.1.ph = phi i32 [ 0, %17 ], [ -1, %21 ]
  call void @llvm.lifetime.end.p0(i64 144, ptr nonnull %4) #25
  br label %29

24:                                               ; preds = %14
  %25 = getelementptr inbounds nuw i8, ptr %4, i64 88
  %26 = load i64, ptr %25, align 8, !tbaa !258
  %27 = trunc i64 %26 to i32
  tail call fastcc void @add_cruft_object_entry(ptr noundef %0, i32 noundef %6, ptr noundef null, i64 noundef 0, ptr noundef null, i32 noundef %27)
  call void @llvm.lifetime.end.p0(i64 144, ptr nonnull %4) #25
  br label %29

28:                                               ; preds = %12
  tail call fastcc void @add_object_entry(ptr noundef %0, i32 noundef %6, ptr noundef nonnull @.str.139, i32 noundef 0)
  br label %29

29:                                               ; preds = %28, %24, %.thread, %_.exit
  %.010 = phi i32 [ 0, %_.exit ], [ %.1.ph, %.thread ], [ 0, %24 ], [ 0, %28 ]
  ret i32 %.010
}